(dp0
Vengine
p1
Vxelatex
p2
sVpackages
p3
c__builtin__
set
p4
((lp5
Vamsmath
p6
aVhyperref
p7
aVpolyglossia
p8
atp9
Rp10
sVfiles_with_guttermarks
p11
g4
((lp12
S'more_info.tex'
p13
aV/Users/aaronmacneil/Documents/GitHub/NutrientFishbase/model/./more_info.tex
p14
atp15
Rp16
sVsynctex
p17
I01
s.